target datalayout = "e-m:e-p270:32:32-p271:32:32-p272:64:64-i64:64-i128:128-f80:128-n8:16:32:64-S128"
target triple = "x86_64-pc-linux-gnu"

%struct.DhKey = type { %struct.sp_int, %struct.sp_int, %struct.sp_int, ptr, i32 }
%struct.sp_int = type { i16, i16, [129 x i64] }

; Function Attrs: nounwind uwtable
define internal i32 @_DhSetKey(ptr noundef %0, ptr noundef %1, i32 noundef %2, ptr noundef %3, i32 noundef %4, ptr noundef %5, i32 noundef %6, i32 noundef %7, ptr noundef %8) #0 {
  %10 = alloca ptr, align 8
  %11 = alloca ptr, align 8
  %12 = alloca i32, align 4
  %13 = alloca ptr, align 8
  %14 = alloca i32, align 4
  %15 = alloca ptr, align 8
  %16 = alloca i32, align 4
  %17 = alloca i32, align 4
  %18 = alloca ptr, align 8
  %19 = alloca i32, align 4
  %20 = alloca ptr, align 8
  %21 = alloca ptr, align 8
  %22 = alloca i32, align 4
  store ptr %0, ptr %10, align 8, !tbaa !3
  store ptr %1, ptr %11, align 8, !tbaa !16
  store i32 %2, ptr %12, align 4, !tbaa !9
  store ptr %3, ptr %13, align 8, !tbaa !16
  store i32 %4, ptr %14, align 4, !tbaa !9
  store ptr %5, ptr %15, align 8, !tbaa !16
  store i32 %6, ptr %16, align 4, !tbaa !9
  store i32 %7, ptr %17, align 4, !tbaa !9
  store ptr %8, ptr %18, align 8, !tbaa !27
  call void @llvm.lifetime.start.p0(i64 4, ptr %19) #9
  store i32 0, ptr %19, align 4, !tbaa !9
  call void @llvm.lifetime.start.p0(i64 8, ptr %20) #9
  store ptr null, ptr %20, align 8, !tbaa !32
  call void @llvm.lifetime.start.p0(i64 8, ptr %21) #9
  store ptr null, ptr %21, align 8, !tbaa !32
  %23 = load ptr, ptr %10, align 8, !tbaa !3
  %24 = icmp eq ptr %23, null
  br i1 %24, label %37, label %25

25:                                               ; preds = %9
  %26 = load ptr, ptr %11, align 8, !tbaa !16
  %27 = icmp eq ptr %26, null
  br i1 %27, label %37, label %28

28:                                               ; preds = %25
  %29 = load ptr, ptr %13, align 8, !tbaa !16
  %30 = icmp eq ptr %29, null
  br i1 %30, label %37, label %31

31:                                               ; preds = %28
  %32 = load i32, ptr %12, align 4, !tbaa !9
  %33 = icmp eq i32 %32, 0
  br i1 %33, label %37, label %34

34:                                               ; preds = %31
  %35 = load i32, ptr %14, align 4, !tbaa !9
  %36 = icmp eq i32 %35, 0
  br i1 %36, label %37, label %38

37:                                               ; preds = %34, %31, %28, %25, %9
  store i32 -173, ptr %19, align 4, !tbaa !9
  br label %38

38:                                               ; preds = %37, %34
  br label %39

39:                                               ; preds = %38
  br label %40

40:                                               ; preds = %39
  br label %41

41:                                               ; preds = %40
  %42 = load i32, ptr %19, align 4, !tbaa !9
  %43 = icmp eq i32 %42, 0
  br i1 %43, label %44, label %88

44:                                               ; preds = %41
  %45 = load ptr, ptr %11, align 8, !tbaa !16
  %46 = getelementptr inbounds i8, ptr %45, i64 0
  %47 = load i8, ptr %46, align 1, !tbaa !19
  %48 = zext i8 %47 to i32
  %49 = icmp eq i32 %48, 0
  br i1 %49, label %50, label %55

50:                                               ; preds = %44
  %51 = load i32, ptr %12, align 4, !tbaa !9
  %52 = add i32 %51, -1
  store i32 %52, ptr %12, align 4, !tbaa !9
  %53 = load ptr, ptr %11, align 8, !tbaa !16
  %54 = getelementptr inbounds nuw i8, ptr %53, i32 1
  store ptr %54, ptr %11, align 8, !tbaa !16
  br label %55

55:                                               ; preds = %50, %44
  %56 = load ptr, ptr %13, align 8, !tbaa !16
  %57 = getelementptr inbounds i8, ptr %56, i64 0
  %58 = load i8, ptr %57, align 1, !tbaa !19
  %59 = zext i8 %58 to i32
  %60 = icmp eq i32 %59, 0
  br i1 %60, label %61, label %66

61:                                               ; preds = %55
  %62 = load i32, ptr %14, align 4, !tbaa !9
  %63 = add i32 %62, -1
  store i32 %63, ptr %14, align 4, !tbaa !9
  %64 = load ptr, ptr %13, align 8, !tbaa !16
  %65 = getelementptr inbounds nuw i8, ptr %64, i32 1
  store ptr %65, ptr %13, align 8, !tbaa !16
  br label %66

66:                                               ; preds = %61, %55
  %67 = load ptr, ptr %15, align 8, !tbaa !16
  %68 = icmp ne ptr %67, null
  br i1 %68, label %69, label %81

69:                                               ; preds = %66
  %70 = load ptr, ptr %15, align 8, !tbaa !16
  %71 = getelementptr inbounds i8, ptr %70, i64 0
  %72 = load i8, ptr %71, align 1, !tbaa !19
  %73 = zext i8 %72 to i32
  %74 = icmp eq i32 %73, 0
  br i1 %74, label %75, label %80

75:                                               ; preds = %69
  %76 = load i32, ptr %16, align 4, !tbaa !9
  %77 = add i32 %76, -1
  store i32 %77, ptr %16, align 4, !tbaa !9
  %78 = load ptr, ptr %15, align 8, !tbaa !16
  %79 = getelementptr inbounds nuw i8, ptr %78, i32 1
  store ptr %79, ptr %15, align 8, !tbaa !16
  br label %80

80:                                               ; preds = %75, %69
  br label %81

81:                                               ; preds = %80, %66
  %82 = load ptr, ptr %10, align 8, !tbaa !3
  %83 = getelementptr inbounds nuw %struct.DhKey, ptr %82, i32 0, i32 0
  %84 = call i32 @sp_init(ptr noundef %83)
  %85 = icmp ne i32 %84, 0
  br i1 %85, label %86, label %87

86:                                               ; preds = %81
  store i32 -110, ptr %19, align 4, !tbaa !9
  br label %87

87:                                               ; preds = %86, %81
  br label %88

88:                                               ; preds = %87, %41
  %89 = load i32, ptr %19, align 4, !tbaa !9
  %90 = icmp eq i32 %89, 0
  br i1 %90, label %91, label %103

91:                                               ; preds = %88
  %92 = load ptr, ptr %10, align 8, !tbaa !3
  %93 = getelementptr inbounds nuw %struct.DhKey, ptr %92, i32 0, i32 0
  %94 = load ptr, ptr %11, align 8, !tbaa !16
  %95 = load i32, ptr %12, align 4, !tbaa !9
  %96 = call i32 @sp_read_unsigned_bin(ptr noundef %93, ptr noundef %94, i32 noundef %95)
  %97 = icmp ne i32 %96, 0
  br i1 %97, label %98, label %99

98:                                               ; preds = %91
  store i32 -158, ptr %19, align 4, !tbaa !9
  br label %102

99:                                               ; preds = %91
  %100 = load ptr, ptr %10, align 8, !tbaa !3
  %101 = getelementptr inbounds nuw %struct.DhKey, ptr %100, i32 0, i32 0
  store ptr %101, ptr %20, align 8, !tbaa !32
  br label %102

102:                                              ; preds = %99, %98
  br label %103

103:                                              ; preds = %102, %88
  %104 = load i32, ptr %19, align 4, !tbaa !9
  %105 = icmp eq i32 %104, 0
  br i1 %105, label %106, label %137

106:                                              ; preds = %103
  %107 = load i32, ptr %17, align 4, !tbaa !9
  %108 = icmp ne i32 %107, 0
  br i1 %108, label %137, label %109

109:                                              ; preds = %106
  call void @llvm.lifetime.start.p0(i64 4, ptr %22) #9
  store i32 0, ptr %22, align 4, !tbaa !9
  %110 = load i32, ptr %12, align 4, !tbaa !9
  %111 = zext i32 %110 to i64
  %112 = icmp eq i64 %111, 256
  br i1 %112, label %113, label %118

113:                                              ; preds = %109
  %114 = load ptr, ptr %11, align 8, !tbaa !16
  %115 = call i32 @memcmp(ptr noundef %114, ptr noundef @dh_ffdhe2048_p, i64 noundef 256) #10
  %116 = icmp eq i32 %115, 0
  br i1 %116, label %117, label %118

117:                                              ; preds = %113
  store i32 1, ptr %22, align 4, !tbaa !9
  br label %129

118:                                              ; preds = %113, %109
  %119 = load ptr, ptr %18, align 8, !tbaa !27
  %120 = icmp ne ptr %119, null
  br i1 %120, label %121, label %125

121:                                              ; preds = %118
  %122 = load ptr, ptr %20, align 8, !tbaa !32
  %123 = load ptr, ptr %18, align 8, !tbaa !27
  %124 = call i32 @sp_prime_is_prime_ex(ptr noundef %122, i32 noundef 8, ptr noundef %22, ptr noundef %123)
  store i32 %124, ptr %19, align 4, !tbaa !9
  br label %128

125:                                              ; preds = %118
  %126 = load ptr, ptr %20, align 8, !tbaa !32
  %127 = call i32 @sp_prime_is_prime(ptr noundef %126, i32 noundef 8, ptr noundef %22)
  store i32 %127, ptr %19, align 4, !tbaa !9
  br label %128

128:                                              ; preds = %125, %121
  br label %129

129:                                              ; preds = %128, %117
  %130 = load i32, ptr %19, align 4, !tbaa !9
  %131 = icmp eq i32 %130, 0
  br i1 %131, label %132, label %136

132:                                              ; preds = %129
  %133 = load i32, ptr %22, align 4, !tbaa !9
  %134 = icmp eq i32 %133, 0
  br i1 %134, label %135, label %136

135:                                              ; preds = %132
  store i32 -243, ptr %19, align 4, !tbaa !9
  br label %136

136:                                              ; preds = %135, %132, %129
  call void @llvm.lifetime.end.p0(i64 4, ptr %22) #9
  br label %137

137:                                              ; preds = %136, %106, %103
  %138 = load i32, ptr %19, align 4, !tbaa !9
  %139 = icmp eq i32 %138, 0
  br i1 %139, label %140, label %146

140:                                              ; preds = %137
  %141 = load ptr, ptr %10, align 8, !tbaa !3
  %142 = getelementptr inbounds nuw %struct.DhKey, ptr %141, i32 0, i32 1
  %143 = call i32 @sp_init(ptr noundef %142)
  %144 = icmp ne i32 %143, 0
  br i1 %144, label %145, label %146

145:                                              ; preds = %140
  store i32 -110, ptr %19, align 4, !tbaa !9
  br label %146

146:                                              ; preds = %145, %140, %137
  %147 = load i32, ptr %19, align 4, !tbaa !9
  %148 = icmp eq i32 %147, 0
  br i1 %148, label %149, label %161

149:                                              ; preds = %146
  %150 = load ptr, ptr %10, align 8, !tbaa !3
  %151 = getelementptr inbounds nuw %struct.DhKey, ptr %150, i32 0, i32 1
  %152 = load ptr, ptr %13, align 8, !tbaa !16
  %153 = load i32, ptr %14, align 4, !tbaa !9
  %154 = call i32 @sp_read_unsigned_bin(ptr noundef %151, ptr noundef %152, i32 noundef %153)
  %155 = icmp ne i32 %154, 0
  br i1 %155, label %156, label %157

156:                                              ; preds = %149
  store i32 -158, ptr %19, align 4, !tbaa !9
  br label %160

157:                                              ; preds = %149
  %158 = load ptr, ptr %10, align 8, !tbaa !3
  %159 = getelementptr inbounds nuw %struct.DhKey, ptr %158, i32 0, i32 1
  store ptr %159, ptr %21, align 8, !tbaa !32
  br label %160

160:                                              ; preds = %157, %156
  br label %161

161:                                              ; preds = %160, %146
  %162 = load i32, ptr %19, align 4, !tbaa !9
  %163 = icmp eq i32 %162, 0
  br i1 %163, label %164, label %174

164:                                              ; preds = %161
  %165 = load ptr, ptr %15, align 8, !tbaa !16
  %166 = icmp ne ptr %165, null
  br i1 %166, label %167, label %174

167:                                              ; preds = %164
  %168 = load ptr, ptr %10, align 8, !tbaa !3
  %169 = getelementptr inbounds nuw %struct.DhKey, ptr %168, i32 0, i32 2
  %170 = call i32 @sp_init(ptr noundef %169)
  %171 = icmp ne i32 %170, 0
  br i1 %171, label %172, label %173

172:                                              ; preds = %167
  store i32 -110, ptr %19, align 4, !tbaa !9
  br label %173

173:                                              ; preds = %172, %167
  br label %174

174:                                              ; preds = %173, %164, %161
  %175 = load i32, ptr %19, align 4, !tbaa !9
  %176 = icmp eq i32 %175, 0
  br i1 %176, label %177, label %193

177:                                              ; preds = %174
  %178 = load ptr, ptr %15, align 8, !tbaa !16
  %179 = icmp ne ptr %178, null
  br i1 %179, label %180, label %193

180:                                              ; preds = %177
  %181 = load ptr, ptr %10, align 8, !tbaa !3
  %182 = getelementptr inbounds nuw %struct.DhKey, ptr %181, i32 0, i32 2
  %183 = load ptr, ptr %15, align 8, !tbaa !16
  %184 = load i32, ptr %16, align 4, !tbaa !9
  %185 = call i32 @sp_read_unsigned_bin(ptr noundef %182, ptr noundef %183, i32 noundef %184)
  %186 = icmp ne i32 %185, 0
  br i1 %186, label %187, label %188

187:                                              ; preds = %180
  store i32 -110, ptr %19, align 4, !tbaa !9
  br label %192

188:                                              ; preds = %180
  %189 = load i32, ptr %17, align 4, !tbaa !9
  %190 = load ptr, ptr %10, align 8, !tbaa !3
  %191 = getelementptr inbounds nuw %struct.DhKey, ptr %190, i32 0, i32 4
  store i32 %189, ptr %191, align 8, !tbaa !15
  br label %192

192:                                              ; preds = %188, %187
  br label %193

193:                                              ; preds = %192, %177, %174
  %194 = load i32, ptr %19, align 4, !tbaa !9
  %195 = icmp ne i32 %194, 0
  br i1 %195, label %196, label %210

196:                                              ; preds = %193
  %197 = load ptr, ptr %10, align 8, !tbaa !3
  %198 = icmp ne ptr %197, null
  br i1 %198, label %199, label %210

199:                                              ; preds = %196
  %200 = load ptr, ptr %21, align 8, !tbaa !32
  %201 = icmp ne ptr %200, null
  br i1 %201, label %202, label %204

202:                                              ; preds = %199
  %203 = load ptr, ptr %21, align 8, !tbaa !32
  call void @sp_clear(ptr noundef %203)
  br label %204

204:                                              ; preds = %202, %199
  %205 = load ptr, ptr %20, align 8, !tbaa !32
  %206 = icmp ne ptr %205, null
  br i1 %206, label %207, label %209

207:                                              ; preds = %204
  %208 = load ptr, ptr %20, align 8, !tbaa !32
  call void @sp_clear(ptr noundef %208)
  br label %209

209:                                              ; preds = %207, %204
  br label %210

210:                                              ; preds = %209, %196, %193
  br label %211

211:                                              ; preds = %210
  br label %212

212:                                              ; preds = %211
  br label %213

213:                                              ; preds = %212
  %214 = load i32, ptr %19, align 4, !tbaa !9
  call void @llvm.lifetime.end.p0(i64 8, ptr %21) #9
  call void @llvm.lifetime.end.p0(i64 8, ptr %20) #9
  call void @llvm.lifetime.end.p0(i64 4, ptr %19) #9
  ret i32 %214
}