; Function Attrs: nounwind uwtable
define internal fastcc i32 @_DhSetKey(ptr noundef %0, ptr noundef %1, i32 noundef %2, ptr noundef %3, i32 noundef %4, ptr noundef %5, i32 noundef %6, i32 noundef %7, ptr noundef %8) unnamed_addr #1 {
  %10 = alloca i32, align 4
  %11 = icmp ne ptr %0, null
  %12 = icmp ne ptr %1, null
  %13 = icmp ne ptr %3, null
  %14 = and i1 %12, %13
  %15 = icmp ne i32 %2, 0
  %16 = and i1 %15, %14
  %17 = icmp ne i32 %4, 0
  %18 = and i1 %17, %16
  %or.cond7.not = and i1 %11, %18
  br i1 %or.cond7.not, label %19, label %.thread129

19:                                               ; preds = %9
  %20 = load i8, ptr %1, align 1, !tbaa !13
  %21 = icmp eq i8 %20, 0
  %22 = sext i1 %21 to i32
  %.176 = add i32 %2, %22
  %.174.idx = zext i1 %21 to i64
  %.174 = getelementptr inbounds nuw i8, ptr %1, i64 %.174.idx
  %23 = load i8, ptr %3, align 1, !tbaa !13
  %24 = icmp eq i8 %23, 0
  %.184.idx = zext i1 %24 to i64
  %.184 = getelementptr inbounds nuw i8, ptr %3, i64 %.184.idx
  %25 = sext i1 %24 to i32
  %.182 = add i32 %4, %25
  %.not = icmp eq ptr %5, null
  br i1 %.not, label %32, label %26

26:                                               ; preds = %19
  %27 = load i8, ptr %5, align 1, !tbaa !13
  %28 = icmp eq i8 %27, 0
  br i1 %28, label %29, label %32

29:                                               ; preds = %26
  %30 = add i32 %6, -1
  %31 = getelementptr inbounds nuw i8, ptr %5, i64 1
  br label %32

32:                                               ; preds = %26, %29, %19
  %.180 = phi ptr [ %31, %29 ], [ %5, %26 ], [ null, %19 ]
  %.178 = phi i32 [ %30, %29 ], [ %6, %26 ], [ %6, %19 ]
  %33 = tail call i32 @sp_init(ptr noundef nonnull %0) #14
  %.not95 = icmp eq i32 %33, 0
  br i1 %.not95, label %.thread, label %.thread129

.thread:                                          ; preds = %32
  %34 = tail call i32 @sp_read_unsigned_bin(ptr noundef nonnull %0, ptr noundef nonnull %.174, i32 noundef %.176) #14
  %.not96 = icmp eq i32 %34, 0
  %. = select i1 %.not96, i32 0, i32 -158
  %.105 = select i1 %.not96, ptr %0, ptr null
  br label %.thread129

.thread129:                                       ; preds = %9, %32, %.thread
  %.073128 = phi ptr [ %.174, %.thread ], [ %.174, %32 ], [ %1, %9 ]
  %.075126 = phi i32 [ %.176, %.thread ], [ %.176, %32 ], [ %2, %9 ]
  %.077123 = phi i32 [ %.178, %.thread ], [ %.178, %32 ], [ %6, %9 ]
  %.079121 = phi ptr [ %.180, %.thread ], [ %.180, %32 ], [ %5, %9 ]
  %.081119 = phi i32 [ %.182, %.thread ], [ %.182, %32 ], [ %4, %9 ]
  %.083117 = phi ptr [ %.184, %.thread ], [ %.184, %32 ], [ %3, %9 ]
  %.2 = phi i32 [ %., %.thread ], [ -110, %32 ], [ -173, %9 ]
  %.071 = phi ptr [ %.105, %.thread ], [ null, %32 ], [ null, %9 ]
  %35 = or i32 %.2, %7
  %or.cond9.not = icmp eq i32 %35, 0
  br i1 %or.cond9.not, label %36, label %50

36:                                               ; preds = %.thread129
  call void @llvm.lifetime.start.p0(i64 4, ptr nonnull %10) #14
  store i32 0, ptr %10, align 4, !tbaa !21
  %37 = icmp eq i32 %.075126, 256
  br i1 %37, label %38, label %41

38:                                               ; preds = %36
  %bcmp = tail call i32 @bcmp(ptr noundef nonnull dereferenceable(256) %.073128, ptr noundef nonnull dereferenceable(256) @dh_ffdhe2048_p, i64 256)
  %39 = icmp eq i32 %bcmp, 0
  br i1 %39, label %40, label %41

40:                                               ; preds = %38
  store i32 1, ptr %10, align 4, !tbaa !21
  br label %46

41:                                               ; preds = %38, %36
  %.not97 = icmp eq ptr %8, null
  br i1 %.not97, label %44, label %42

42:                                               ; preds = %41
  %43 = call i32 @sp_prime_is_prime_ex(ptr noundef %.071, i32 noundef 8, ptr noundef nonnull %10, ptr noundef nonnull %8) #14
  br label %46

44:                                               ; preds = %41
  %45 = call i32 @sp_prime_is_prime(ptr noundef %.071, i32 noundef 8, ptr noundef nonnull %10) #14
  br label %46

46:                                               ; preds = %42, %44, %40
  %.4 = phi i32 [ 0, %40 ], [ %43, %42 ], [ %45, %44 ]
  %47 = icmp eq i32 %.4, 0
  %48 = load i32, ptr %10, align 4
  %49 = icmp eq i32 %48, 0
  %or.cond11 = select i1 %47, i1 %49, i1 false
  call void @llvm.lifetime.end.p0(i64 4, ptr nonnull %10) #14
  br i1 %or.cond11, label %.thread158, label %50

50:                                               ; preds = %46, %.thread129
  %.3 = phi i32 [ %.2, %.thread129 ], [ %.4, %46 ]
  %51 = icmp eq i32 %.3, 0
  br i1 %51, label %52, label %.thread158

52:                                               ; preds = %50
  %53 = getelementptr inbounds nuw i8, ptr %0, i64 1040
  %54 = call i32 @sp_init(ptr noundef nonnull %53) #14
  %.not98 = icmp eq i32 %54, 0
  br i1 %.not98, label %55, label %.thread164

55:                                               ; preds = %52
  %56 = call i32 @sp_read_unsigned_bin(ptr noundef nonnull %53, ptr noundef %.083117, i32 noundef %.081119) #14
  %.not99 = icmp eq i32 %56, 0
  %.107 = select i1 %.not99, i32 0, i32 -158
  %57 = icmp ne ptr %.079121, null
  %or.cond13 = select i1 %.not99, i1 %57, i1 false
  br i1 %or.cond13, label %58, label %61

58:                                               ; preds = %55
  %59 = getelementptr inbounds nuw i8, ptr %0, i64 2080
  %60 = call i32 @sp_init(ptr noundef nonnull %59) #14
  %.not100 = icmp eq i32 %60, 0
  %spec.select109 = select i1 %.not100, i32 0, i32 -110
  br label %61

61:                                               ; preds = %58, %55
  %.7 = phi i32 [ %.107, %55 ], [ %spec.select109, %58 ]
  %62 = icmp eq i32 %.7, 0
  %or.cond15 = select i1 %62, i1 %57, i1 false
  br i1 %or.cond15, label %63, label %67

63:                                               ; preds = %61
  %64 = getelementptr inbounds nuw i8, ptr %0, i64 2080
  %65 = call i32 @sp_read_unsigned_bin(ptr noundef nonnull %64, ptr noundef nonnull %.079121, i32 noundef %.077123) #14
  %.not101 = icmp eq i32 %65, 0
  br i1 %.not101, label %.thread153, label %67

.thread153:                                       ; preds = %63
  %66 = getelementptr inbounds nuw i8, ptr %0, i64 3128
  store i32 %7, ptr %66, align 8, !tbaa !11
  br label %72

67:                                               ; preds = %63, %61
  %.8 = phi i32 [ %.7, %61 ], [ -110, %63 ]
  %68 = icmp ne i32 %.8, 0
  %or.cond17 = and i1 %11, %68
  br i1 %or.cond17, label %69, label %72

.thread158:                                       ; preds = %46, %50
  %.5.ph = phi i32 [ %.3, %50 ], [ -243, %46 ]
  br i1 %11, label %.thread164, label %72

69:                                               ; preds = %67
  br i1 %.not99, label %70, label %.thread164

70:                                               ; preds = %69
  call void @sp_clear(ptr noundef nonnull %53) #14
  br label %.thread164

.thread164:                                       ; preds = %52, %.thread158, %70, %69
  %.8163168 = phi i32 [ %.8, %70 ], [ %.8, %69 ], [ %.5.ph, %.thread158 ], [ -110, %52 ]
  %.not103 = icmp eq ptr %.071, null
  br i1 %.not103, label %72, label %71

71:                                               ; preds = %.thread164
  call void @sp_clear(ptr noundef nonnull %.071) #14
  br label %72

72:                                               ; preds = %.thread158, %.thread153, %67, %71, %.thread164
  %.8157 = phi i32 [ 0, %.thread153 ], [ %.8, %67 ], [ %.8163168, %71 ], [ %.8163168, %.thread164 ], [ %.5.ph, %.thread158 ]
  ret i32 %.8157
}